
resorce.out:     file format elf64-x86-64


Disassembly of section .init:

0000000000001000 <_init>:
    1000:	f3 0f 1e fa          	endbr64 
    1004:	48 83 ec 08          	sub    $0x8,%rsp
    1008:	48 8b 05 d9 2f 00 00 	mov    0x2fd9(%rip),%rax        # 3fe8 <__gmon_start__@Base>
    100f:	48 85 c0             	test   %rax,%rax
    1012:	74 02                	je     1016 <_init+0x16>
    1014:	ff d0                	call   *%rax
    1016:	48 83 c4 08          	add    $0x8,%rsp
    101a:	c3                   	ret    

Disassembly of section .plt:

0000000000001020 <.plt>:
    1020:	ff 35 82 2f 00 00    	push   0x2f82(%rip)        # 3fa8 <_GLOBAL_OFFSET_TABLE_+0x8>
    1026:	f2 ff 25 83 2f 00 00 	bnd jmp *0x2f83(%rip)        # 3fb0 <_GLOBAL_OFFSET_TABLE_+0x10>
    102d:	0f 1f 00             	nopl   (%rax)
    1030:	f3 0f 1e fa          	endbr64 
    1034:	68 00 00 00 00       	push   $0x0
    1039:	f2 e9 e1 ff ff ff    	bnd jmp 1020 <_init+0x20>
    103f:	90                   	nop
    1040:	f3 0f 1e fa          	endbr64 
    1044:	68 01 00 00 00       	push   $0x1
    1049:	f2 e9 d1 ff ff ff    	bnd jmp 1020 <_init+0x20>
    104f:	90                   	nop
    1050:	f3 0f 1e fa          	endbr64 
    1054:	68 02 00 00 00       	push   $0x2
    1059:	f2 e9 c1 ff ff ff    	bnd jmp 1020 <_init+0x20>
    105f:	90                   	nop
    1060:	f3 0f 1e fa          	endbr64 
    1064:	68 03 00 00 00       	push   $0x3
    1069:	f2 e9 b1 ff ff ff    	bnd jmp 1020 <_init+0x20>
    106f:	90                   	nop

Disassembly of section .plt.got:

0000000000001070 <__cxa_finalize@plt>:
    1070:	f3 0f 1e fa          	endbr64 
    1074:	f2 ff 25 7d 2f 00 00 	bnd jmp *0x2f7d(%rip)        # 3ff8 <__cxa_finalize@GLIBC_2.2.5>
    107b:	0f 1f 44 00 00       	nopl   0x0(%rax,%rax,1)

Disassembly of section .plt.sec:

0000000000001080 <printf@plt>:
    1080:	f3 0f 1e fa          	endbr64 
    1084:	f2 ff 25 2d 2f 00 00 	bnd jmp *0x2f2d(%rip)        # 3fb8 <printf@GLIBC_2.2.5>
    108b:	0f 1f 44 00 00       	nopl   0x0(%rax,%rax,1)

0000000000001090 <getchar@plt>:
    1090:	f3 0f 1e fa          	endbr64 
    1094:	f2 ff 25 25 2f 00 00 	bnd jmp *0x2f25(%rip)        # 3fc0 <getchar@GLIBC_2.2.5>
    109b:	0f 1f 44 00 00       	nopl   0x0(%rax,%rax,1)

00000000000010a0 <malloc@plt>:
    10a0:	f3 0f 1e fa          	endbr64 
    10a4:	f2 ff 25 1d 2f 00 00 	bnd jmp *0x2f1d(%rip)        # 3fc8 <malloc@GLIBC_2.2.5>
    10ab:	0f 1f 44 00 00       	nopl   0x0(%rax,%rax,1)

00000000000010b0 <__isoc99_scanf@plt>:
    10b0:	f3 0f 1e fa          	endbr64 
    10b4:	f2 ff 25 15 2f 00 00 	bnd jmp *0x2f15(%rip)        # 3fd0 <__isoc99_scanf@GLIBC_2.7>
    10bb:	0f 1f 44 00 00       	nopl   0x0(%rax,%rax,1)

Disassembly of section .text:

00000000000010c0 <_start>:
    10c0:	f3 0f 1e fa          	endbr64 
    10c4:	31 ed                	xor    %ebp,%ebp
    10c6:	49 89 d1             	mov    %rdx,%r9
    10c9:	5e                   	pop    %rsi
    10ca:	48 89 e2             	mov    %rsp,%rdx
    10cd:	48 83 e4 f0          	and    $0xfffffffffffffff0,%rsp
    10d1:	50                   	push   %rax
    10d2:	54                   	push   %rsp
    10d3:	45 31 c0             	xor    %r8d,%r8d
    10d6:	31 c9                	xor    %ecx,%ecx
    10d8:	48 8d 3d ca 00 00 00 	lea    0xca(%rip),%rdi        # 11a9 <main>
    10df:	ff 15 f3 2e 00 00    	call   *0x2ef3(%rip)        # 3fd8 <__libc_start_main@GLIBC_2.34>
    10e5:	f4                   	hlt    
    10e6:	66 2e 0f 1f 84 00 00 	cs nopw 0x0(%rax,%rax,1)
    10ed:	00 00 00 

00000000000010f0 <deregister_tm_clones>:
    10f0:	48 8d 3d 19 2f 00 00 	lea    0x2f19(%rip),%rdi        # 4010 <__TMC_END__>
    10f7:	48 8d 05 12 2f 00 00 	lea    0x2f12(%rip),%rax        # 4010 <__TMC_END__>
    10fe:	48 39 f8             	cmp    %rdi,%rax
    1101:	74 15                	je     1118 <deregister_tm_clones+0x28>
    1103:	48 8b 05 d6 2e 00 00 	mov    0x2ed6(%rip),%rax        # 3fe0 <_ITM_deregisterTMCloneTable@Base>
    110a:	48 85 c0             	test   %rax,%rax
    110d:	74 09                	je     1118 <deregister_tm_clones+0x28>
    110f:	ff e0                	jmp    *%rax
    1111:	0f 1f 80 00 00 00 00 	nopl   0x0(%rax)
    1118:	c3                   	ret    
    1119:	0f 1f 80 00 00 00 00 	nopl   0x0(%rax)

0000000000001120 <register_tm_clones>:
    1120:	48 8d 3d e9 2e 00 00 	lea    0x2ee9(%rip),%rdi        # 4010 <__TMC_END__>
    1127:	48 8d 35 e2 2e 00 00 	lea    0x2ee2(%rip),%rsi        # 4010 <__TMC_END__>
    112e:	48 29 fe             	sub    %rdi,%rsi
    1131:	48 89 f0             	mov    %rsi,%rax
    1134:	48 c1 ee 3f          	shr    $0x3f,%rsi
    1138:	48 c1 f8 03          	sar    $0x3,%rax
    113c:	48 01 c6             	add    %rax,%rsi
    113f:	48 d1 fe             	sar    %rsi
    1142:	74 14                	je     1158 <register_tm_clones+0x38>
    1144:	48 8b 05 a5 2e 00 00 	mov    0x2ea5(%rip),%rax        # 3ff0 <_ITM_registerTMCloneTable@Base>
    114b:	48 85 c0             	test   %rax,%rax
    114e:	74 08                	je     1158 <register_tm_clones+0x38>
    1150:	ff e0                	jmp    *%rax
    1152:	66 0f 1f 44 00 00    	nopw   0x0(%rax,%rax,1)
    1158:	c3                   	ret    
    1159:	0f 1f 80 00 00 00 00 	nopl   0x0(%rax)

0000000000001160 <__do_global_dtors_aux>:
    1160:	f3 0f 1e fa          	endbr64 
    1164:	80 3d a5 2e 00 00 00 	cmpb   $0x0,0x2ea5(%rip)        # 4010 <__TMC_END__>
    116b:	75 2b                	jne    1198 <__do_global_dtors_aux+0x38>
    116d:	55                   	push   %rbp
    116e:	48 83 3d 82 2e 00 00 	cmpq   $0x0,0x2e82(%rip)        # 3ff8 <__cxa_finalize@GLIBC_2.2.5>
    1175:	00 
    1176:	48 89 e5             	mov    %rsp,%rbp
    1179:	74 0c                	je     1187 <__do_global_dtors_aux+0x27>
    117b:	48 8b 3d 86 2e 00 00 	mov    0x2e86(%rip),%rdi        # 4008 <__dso_handle>
    1182:	e8 e9 fe ff ff       	call   1070 <__cxa_finalize@plt>
    1187:	e8 64 ff ff ff       	call   10f0 <deregister_tm_clones>
    118c:	c6 05 7d 2e 00 00 01 	movb   $0x1,0x2e7d(%rip)        # 4010 <__TMC_END__>
    1193:	5d                   	pop    %rbp
    1194:	c3                   	ret    
    1195:	0f 1f 00             	nopl   (%rax)
    1198:	c3                   	ret    
    1199:	0f 1f 80 00 00 00 00 	nopl   0x0(%rax)

00000000000011a0 <frame_dummy>:
    11a0:	f3 0f 1e fa          	endbr64 
    11a4:	e9 77 ff ff ff       	jmp    1120 <register_tm_clones>

00000000000011a9 <main>:
    11a9:	f3 0f 1e fa          	endbr64 
    11ad:	55                   	push   %rbp
    11ae:	48 89 e5             	mov    %rsp,%rbp
    11b1:	48 83 ec 10          	sub    $0x10,%rsp
    11b5:	bf c8 0a 00 00       	mov    $0xac8,%edi
    11ba:	e8 e1 fe ff ff       	call   10a0 <malloc@plt>
    11bf:	48 89 45 f8          	mov    %rax,-0x8(%rbp)
    11c3:	c7 45 f0 00 00 00 00 	movl   $0x0,-0x10(%rbp)
    11ca:	e9 ef 00 00 00       	jmp    12be <main+0x115>
    11cf:	8b 45 f0             	mov    -0x10(%rbp),%eax
    11d2:	48 98                	cltq   
    11d4:	48 69 d0 b8 00 00 00 	imul   $0xb8,%rax,%rdx
    11db:	48 8b 45 f8          	mov    -0x8(%rbp),%rax
    11df:	48 01 d0             	add    %rdx,%rax
    11e2:	48 89 c6             	mov    %rax,%rsi
    11e5:	48 8d 05 18 0e 00 00 	lea    0xe18(%rip),%rax        # 2004 <_IO_stdin_used+0x4>
    11ec:	48 89 c7             	mov    %rax,%rdi
    11ef:	b8 00 00 00 00       	mov    $0x0,%eax
    11f4:	e8 b7 fe ff ff       	call   10b0 <__isoc99_scanf@plt>
    11f9:	8b 45 f0             	mov    -0x10(%rbp),%eax
    11fc:	48 98                	cltq   
    11fe:	48 69 d0 b8 00 00 00 	imul   $0xb8,%rax,%rdx
    1205:	48 8b 45 f8          	mov    -0x8(%rbp),%rax
    1209:	48 01 d0             	add    %rdx,%rax
    120c:	48 83 c0 32          	add    $0x32,%rax
    1210:	48 89 c6             	mov    %rax,%rsi
    1213:	48 8d 05 ea 0d 00 00 	lea    0xdea(%rip),%rax        # 2004 <_IO_stdin_used+0x4>
    121a:	48 89 c7             	mov    %rax,%rdi
    121d:	b8 00 00 00 00       	mov    $0x0,%eax
    1222:	e8 89 fe ff ff       	call   10b0 <__isoc99_scanf@plt>
    1227:	8b 45 f0             	mov    -0x10(%rbp),%eax
    122a:	48 98                	cltq   
    122c:	48 69 d0 b8 00 00 00 	imul   $0xb8,%rax,%rdx
    1233:	48 8b 45 f8          	mov    -0x8(%rbp),%rax
    1237:	48 01 d0             	add    %rdx,%rax
    123a:	48 83 c0 64          	add    $0x64,%rax
    123e:	48 89 c6             	mov    %rax,%rsi
    1241:	48 8d 05 bc 0d 00 00 	lea    0xdbc(%rip),%rax        # 2004 <_IO_stdin_used+0x4>
    1248:	48 89 c7             	mov    %rax,%rdi
    124b:	b8 00 00 00 00       	mov    $0x0,%eax
    1250:	e8 5b fe ff ff       	call   10b0 <__isoc99_scanf@plt>
    1255:	8b 45 f0             	mov    -0x10(%rbp),%eax
    1258:	48 98                	cltq   
    125a:	48 69 d0 b8 00 00 00 	imul   $0xb8,%rax,%rdx
    1261:	48 8b 45 f8          	mov    -0x8(%rbp),%rax
    1265:	48 01 d0             	add    %rdx,%rax
    1268:	48 05 82 00 00 00    	add    $0x82,%rax
    126e:	48 89 c6             	mov    %rax,%rsi
    1271:	48 8d 05 8c 0d 00 00 	lea    0xd8c(%rip),%rax        # 2004 <_IO_stdin_used+0x4>
    1278:	48 89 c7             	mov    %rax,%rdi
    127b:	b8 00 00 00 00       	mov    $0x0,%eax
    1280:	e8 2b fe ff ff       	call   10b0 <__isoc99_scanf@plt>
    1285:	8b 45 f0             	mov    -0x10(%rbp),%eax
    1288:	48 98                	cltq   
    128a:	48 69 d0 b8 00 00 00 	imul   $0xb8,%rax,%rdx
    1291:	48 8b 45 f8          	mov    -0x8(%rbp),%rax
    1295:	48 01 d0             	add    %rdx,%rax
    1298:	48 05 b0 00 00 00    	add    $0xb0,%rax
    129e:	48 89 c6             	mov    %rax,%rsi
    12a1:	48 8d 05 64 0d 00 00 	lea    0xd64(%rip),%rax        # 200c <_IO_stdin_used+0xc>
    12a8:	48 89 c7             	mov    %rax,%rdi
    12ab:	b8 00 00 00 00       	mov    $0x0,%eax
    12b0:	e8 fb fd ff ff       	call   10b0 <__isoc99_scanf@plt>
    12b5:	e8 d6 fd ff ff       	call   1090 <getchar@plt>
    12ba:	83 45 f0 01          	addl   $0x1,-0x10(%rbp)
    12be:	83 7d f0 0e          	cmpl   $0xe,-0x10(%rbp)
    12c2:	0f 8e 07 ff ff ff    	jle    11cf <main+0x26>
    12c8:	c7 45 f4 00 00 00 00 	movl   $0x0,-0xc(%rbp)
    12cf:	e9 a0 00 00 00       	jmp    1374 <main+0x1cb>
    12d4:	8b 45 f4             	mov    -0xc(%rbp),%eax
    12d7:	48 98                	cltq   
    12d9:	48 69 d0 b8 00 00 00 	imul   $0xb8,%rax,%rdx
    12e0:	48 8b 45 f8          	mov    -0x8(%rbp),%rax
    12e4:	48 01 d0             	add    %rdx,%rax
    12e7:	48 8b b0 b0 00 00 00 	mov    0xb0(%rax),%rsi
    12ee:	8b 45 f4             	mov    -0xc(%rbp),%eax
    12f1:	48 98                	cltq   
    12f3:	48 69 d0 b8 00 00 00 	imul   $0xb8,%rax,%rdx
    12fa:	48 8b 45 f8          	mov    -0x8(%rbp),%rax
    12fe:	48 01 d0             	add    %rdx,%rax
    1301:	48 8d b8 82 00 00 00 	lea    0x82(%rax),%rdi
    1308:	8b 45 f4             	mov    -0xc(%rbp),%eax
    130b:	48 98                	cltq   
    130d:	48 69 d0 b8 00 00 00 	imul   $0xb8,%rax,%rdx
    1314:	48 8b 45 f8          	mov    -0x8(%rbp),%rax
    1318:	48 01 d0             	add    %rdx,%rax
    131b:	48 8d 50 64          	lea    0x64(%rax),%rdx
    131f:	8b 45 f4             	mov    -0xc(%rbp),%eax
    1322:	48 98                	cltq   
    1324:	48 69 c8 b8 00 00 00 	imul   $0xb8,%rax,%rcx
    132b:	48 8b 45 f8          	mov    -0x8(%rbp),%rax
    132f:	48 01 c8             	add    %rcx,%rax
    1332:	48 83 c0 32          	add    $0x32,%rax
    1336:	8b 4d f4             	mov    -0xc(%rbp),%ecx
    1339:	48 63 c9             	movslq %ecx,%rcx
    133c:	4c 69 c1 b8 00 00 00 	imul   $0xb8,%rcx,%r8
    1343:	48 8b 4d f8          	mov    -0x8(%rbp),%rcx
    1347:	4c 01 c1             	add    %r8,%rcx
    134a:	49 89 ca             	mov    %rcx,%r10
    134d:	49 89 f1             	mov    %rsi,%r9
    1350:	49 89 f8             	mov    %rdi,%r8
    1353:	48 89 d1             	mov    %rdx,%rcx
    1356:	48 89 c2             	mov    %rax,%rdx
    1359:	4c 89 d6             	mov    %r10,%rsi
    135c:	48 8d 05 ae 0c 00 00 	lea    0xcae(%rip),%rax        # 2011 <_IO_stdin_used+0x11>
    1363:	48 89 c7             	mov    %rax,%rdi
    1366:	b8 00 00 00 00       	mov    $0x0,%eax
    136b:	e8 10 fd ff ff       	call   1080 <printf@plt>
    1370:	83 45 f4 01          	addl   $0x1,-0xc(%rbp)
    1374:	83 7d f4 0e          	cmpl   $0xe,-0xc(%rbp)
    1378:	0f 8e 56 ff ff ff    	jle    12d4 <main+0x12b>
    137e:	b8 00 00 00 00       	mov    $0x0,%eax
    1383:	c9                   	leave  
    1384:	c3                   	ret    

Disassembly of section .fini:

0000000000001388 <_fini>:
    1388:	f3 0f 1e fa          	endbr64 
    138c:	48 83 ec 08          	sub    $0x8,%rsp
    1390:	48 83 c4 08          	add    $0x8,%rsp
    1394:	c3                   	ret    
